; Function Attrs: nofree norecurse nosync nounwind memory(readwrite, inaccessiblemem: none) uwtable
define internal noundef i32 @filter_noinverse_flt_clip(ptr readnone captures(none) %0, ptr noundef readonly captures(none) %1, i32 noundef %2, i32 noundef %3) #6 {
  %5 = getelementptr inbounds nuw i8, ptr %1, i64 8
  %6 = load ptr, ptr %5, align 8, !tbaa !47
  %7 = getelementptr inbounds nuw i8, ptr %1, i64 24
  %8 = load i32, ptr %7, align 8, !tbaa !48
  %9 = getelementptr inbounds nuw i8, ptr %1, i64 28
  %10 = load i32, ptr %9, align 4, !tbaa !50
  %11 = getelementptr inbounds nuw i8, ptr %1, i64 32
  %12 = load float, ptr %11, align 8, !tbaa !53
  %13 = mul nsw i32 %10, %2
  %14 = sdiv i32 %13, %3
  %15 = add nsw i32 %2, 1
  %16 = mul nsw i32 %10, %15
  %17 = sdiv i32 %16, %3
  %18 = load ptr, ptr %6, align 8, !tbaa !55
  %19 = icmp slt i32 %14, %17
  br i1 %19, label %.lr.ph51, label %._crit_edge52

.lr.ph51:                                         ; preds = %4
  %20 = getelementptr inbounds nuw i8, ptr %1, i64 16
  %21 = load ptr, ptr %20, align 8, !tbaa !46
  %22 = load ptr, ptr %1, align 8, !tbaa !44
  %23 = load ptr, ptr %21, align 8, !tbaa !55
  %24 = load ptr, ptr %22, align 8, !tbaa !55
  %25 = icmp sgt i32 %8, 0
  %26 = sext i32 %10 to i64
  br i1 %25, label %.lr.ph.us.preheader, label %._crit_edge52

.lr.ph.us.preheader:                              ; preds = %.lr.ph51
  %27 = sext i32 %14 to i64
  %wide.trip.count = sext i32 %17 to i64
  br label %.lr.ph.us

.lr.ph.us:                                        ; preds = %.lr.ph.us.preheader, %._crit_edge.us
  %indvars.iv = phi i64 [ %27, %.lr.ph.us.preheader ], [ %indvars.iv.next, %._crit_edge.us ]
  %28 = getelementptr inbounds float, ptr %18, i64 %indvars.iv
  br label %29

29:                                               ; preds = %.lr.ph.us, %29
  %.04348.us = phi i32 [ 0, %.lr.ph.us ], [ %42, %29 ]
  %.04447.us = phi ptr [ %24, %.lr.ph.us ], [ %40, %29 ]
  %.04546.us = phi ptr [ %23, %.lr.ph.us ], [ %41, %29 ]
  %30 = getelementptr inbounds float, ptr %.04546.us, i64 %indvars.iv
  %31 = load float, ptr %30, align 4, !tbaa !58
  %32 = load float, ptr %28, align 4, !tbaa !58
  %33 = fsub nsz float %31, %32
  %34 = tail call nsz float @llvm.fmuladd.f32(float %33, float %12, float %31)
  %35 = getelementptr inbounds float, ptr %.04447.us, i64 %indvars.iv
  store float %34, ptr %35, align 4, !tbaa !58
  store float %31, ptr %28, align 4, !tbaa !58
  %36 = load float, ptr %35, align 4, !tbaa !58
  %37 = fcmp nsz ogt float %36, -1.000000e+00
  %38 = select nsz i1 %37, float %36, float -1.000000e+00
  %39 = fcmp nsz ogt float %38, 1.000000e+00
  %..i.us = select nsz i1 %39, float 1.000000e+00, float %38
  store float %..i.us, ptr %35, align 4, !tbaa !58
  %40 = getelementptr inbounds float, ptr %.04447.us, i64 %26
  %41 = getelementptr inbounds float, ptr %.04546.us, i64 %26
  %42 = add nuw nsw i32 %.04348.us, 1
  %exitcond.not = icmp eq i32 %42, %8
  br i1 %exitcond.not, label %._crit_edge.us, label %29, !llvm.loop !66

._crit_edge.us:                                   ; preds = %29
  %indvars.iv.next = add nsw i64 %indvars.iv, 1
  %exitcond55.not = icmp eq i64 %indvars.iv.next, %wide.trip.count
  br i1 %exitcond55.not, label %._crit_edge52, label %.lr.ph.us, !llvm.loop !67

._crit_edge52:                                    ; preds = %._crit_edge.us, %.lr.ph51, %4
  ret i32 0
}